target datalayout = "e-m:e-p270:32:32-p271:32:32-p272:64:64-i64:64-i128:128-f80:128-n8:16:32:64-S128"
target triple = "x86_64-pc-linux-gnu"

%struct.AVFilterContext = type { ptr, ptr, ptr, ptr, ptr, i32, ptr, ptr, i32, ptr, ptr, i32, i32, ptr, ptr, ptr, ptr, i32, ptr, i32, i32 }
%struct.AFreqShift = type { ptr, double, double, i32, i32, [32 x double], [32 x float], i64, ptr, ptr, ptr, ptr, ptr }
%struct.AVFilterLink = type { ptr, ptr, ptr, ptr, i32, i32, i32, i32, %struct.AVRational, i32, i32, i32, %struct.AVChannelLayout, %struct.AVRational, ptr, i32, %struct.AVFilterFormatsConfig, %struct.AVFilterFormatsConfig }
%struct.AVChannelLayout = type { i32, i32, %union.anon.1, ptr }
%union.anon.1 = type { i64 }
%struct.AVRational = type { i32, i32 }
%struct.AVFilterFormatsConfig = type { ptr, ptr, ptr, ptr, ptr }
%struct.AVFilter = type { ptr, ptr, ptr, ptr, ptr, i32 }

@.str = private unnamed_addr constant [11 x i8] c"afreqshift\00", align 1

; Function Attrs: nounwind uwtable
define internal i32 @config_input(ptr noundef %0) #2 {
  %2 = alloca i32, align 4
  %3 = alloca ptr, align 8
  %4 = alloca ptr, align 8
  %5 = alloca ptr, align 8
  %6 = alloca i32, align 4
  store ptr %0, ptr %3, align 8, !tbaa !24
  call void @llvm.lifetime.start.p0(i64 8, ptr %4) #6
  %7 = load ptr, ptr %3, align 8, !tbaa !24
  %8 = getelementptr inbounds nuw %struct.AVFilterLink, ptr %7, i32 0, i32 2
  %9 = load ptr, ptr %8, align 8, !tbaa !28
  store ptr %9, ptr %4, align 8, !tbaa !4
  call void @llvm.lifetime.start.p0(i64 8, ptr %5) #6
  %10 = load ptr, ptr %4, align 8, !tbaa !4
  %11 = getelementptr inbounds nuw %struct.AVFilterContext, ptr %10, i32 0, i32 9
  %12 = load ptr, ptr %11, align 8, !tbaa !9
  store ptr %12, ptr %5, align 8, !tbaa !22
  %13 = load ptr, ptr %5, align 8, !tbaa !22
  %14 = getelementptr inbounds nuw %struct.AFreqShift, ptr %13, i32 0, i32 4
  %15 = load i32, ptr %14, align 4, !tbaa !37
  %16 = load ptr, ptr %5, align 8, !tbaa !22
  %17 = getelementptr inbounds nuw %struct.AFreqShift, ptr %16, i32 0, i32 3
  %18 = load i32, ptr %17, align 8, !tbaa !41
  %19 = icmp ne i32 %15, %18
  br i1 %19, label %20, label %36

20:                                               ; preds = %1
  %21 = load ptr, ptr %5, align 8, !tbaa !22
  %22 = getelementptr inbounds nuw %struct.AFreqShift, ptr %21, i32 0, i32 5
  %23 = getelementptr inbounds [32 x double], ptr %22, i64 0, i64 0
  %24 = load ptr, ptr %5, align 8, !tbaa !22
  %25 = getelementptr inbounds nuw %struct.AFreqShift, ptr %24, i32 0, i32 6
  %26 = getelementptr inbounds [32 x float], ptr %25, i64 0, i64 0
  %27 = load ptr, ptr %5, align 8, !tbaa !22
  %28 = getelementptr inbounds nuw %struct.AFreqShift, ptr %27, i32 0, i32 3
  %29 = load i32, ptr %28, align 8, !tbaa !41
  %30 = mul nsw i32 %29, 2
  %31 = load ptr, ptr %3, align 8, !tbaa !24
  %32 = getelementptr inbounds nuw %struct.AVFilterLink, ptr %31, i32 0, i32 11
  %33 = load i32, ptr %32, align 8, !tbaa !42
  %34 = sitofp i32 %33 to double
  %35 = fdiv nsz double 4.000000e+01, %34
  call void @compute_coefs(ptr noundef %23, ptr noundef %26, i32 noundef %30, double noundef %35)
  br label %36

36:                                               ; preds = %20, %1
  %37 = load ptr, ptr %5, align 8, !tbaa !22
  %38 = getelementptr inbounds nuw %struct.AFreqShift, ptr %37, i32 0, i32 3
  %39 = load i32, ptr %38, align 8, !tbaa !41
  %40 = load ptr, ptr %5, align 8, !tbaa !22
  %41 = getelementptr inbounds nuw %struct.AFreqShift, ptr %40, i32 0, i32 4
  store i32 %39, ptr %41, align 4, !tbaa !37
  %42 = load ptr, ptr %3, align 8, !tbaa !24
  %43 = call ptr @ff_get_audio_buffer(ptr noundef %42, i32 noundef 32)
  %44 = load ptr, ptr %5, align 8, !tbaa !22
  %45 = getelementptr inbounds nuw %struct.AFreqShift, ptr %44, i32 0, i32 8
  store ptr %43, ptr %45, align 8, !tbaa !53
  %46 = load ptr, ptr %3, align 8, !tbaa !24
  %47 = call ptr @ff_get_audio_buffer(ptr noundef %46, i32 noundef 32)
  %48 = load ptr, ptr %5, align 8, !tbaa !22
  %49 = getelementptr inbounds nuw %struct.AFreqShift, ptr %48, i32 0, i32 9
  store ptr %47, ptr %49, align 8, !tbaa !54
  %50 = load ptr, ptr %3, align 8, !tbaa !24
  %51 = call ptr @ff_get_audio_buffer(ptr noundef %50, i32 noundef 32)
  %52 = load ptr, ptr %5, align 8, !tbaa !22
  %53 = getelementptr inbounds nuw %struct.AFreqShift, ptr %52, i32 0, i32 10
  store ptr %51, ptr %53, align 8, !tbaa !55
  %54 = load ptr, ptr %3, align 8, !tbaa !24
  %55 = call ptr @ff_get_audio_buffer(ptr noundef %54, i32 noundef 32)
  %56 = load ptr, ptr %5, align 8, !tbaa !22
  %57 = getelementptr inbounds nuw %struct.AFreqShift, ptr %56, i32 0, i32 11
  store ptr %55, ptr %57, align 8, !tbaa !56
  %58 = load ptr, ptr %5, align 8, !tbaa !22
  %59 = getelementptr inbounds nuw %struct.AFreqShift, ptr %58, i32 0, i32 8
  %60 = load ptr, ptr %59, align 8, !tbaa !53
  %61 = icmp ne ptr %60, null
  br i1 %61, label %62, label %77

62:                                               ; preds = %36
  %63 = load ptr, ptr %5, align 8, !tbaa !22
  %64 = getelementptr inbounds nuw %struct.AFreqShift, ptr %63, i32 0, i32 9
  %65 = load ptr, ptr %64, align 8, !tbaa !54
  %66 = icmp ne ptr %65, null
  br i1 %66, label %67, label %77

67:                                               ; preds = %62
  %68 = load ptr, ptr %5, align 8, !tbaa !22
  %69 = getelementptr inbounds nuw %struct.AFreqShift, ptr %68, i32 0, i32 10
  %70 = load ptr, ptr %69, align 8, !tbaa !55
  %71 = icmp ne ptr %70, null
  br i1 %71, label %72, label %77

72:                                               ; preds = %67
  %73 = load ptr, ptr %5, align 8, !tbaa !22
  %74 = getelementptr inbounds nuw %struct.AFreqShift, ptr %73, i32 0, i32 11
  %75 = load ptr, ptr %74, align 8, !tbaa !56
  %76 = icmp ne ptr %75, null
  br i1 %76, label %78, label %77

77:                                               ; preds = %72, %67, %62, %36
  store i32 -12, ptr %2, align 4
  store i32 1, ptr %6, align 4
  br label %114

78:                                               ; preds = %72
  %79 = load ptr, ptr %3, align 8, !tbaa !24
  %80 = getelementptr inbounds nuw %struct.AVFilterLink, ptr %79, i32 0, i32 5
  %81 = load i32, ptr %80, align 4, !tbaa !57
  %82 = icmp eq i32 %81, 9
  br i1 %82, label %83, label %98

83:                                               ; preds = %78
  %84 = load ptr, ptr %4, align 8, !tbaa !4
  %85 = getelementptr inbounds nuw %struct.AVFilterContext, ptr %84, i32 0, i32 1
  %86 = load ptr, ptr %85, align 8, !tbaa !58
  %87 = getelementptr inbounds nuw %struct.AVFilter, ptr %86, i32 0, i32 0
  %88 = load ptr, ptr %87, align 8, !tbaa !59
  %89 = call i32 @strcmp(ptr noundef %88, ptr noundef @.str) #7
  %90 = icmp ne i32 %89, 0
  br i1 %90, label %94, label %91

91:                                               ; preds = %83
  %92 = load ptr, ptr %5, align 8, !tbaa !22
  %93 = getelementptr inbounds nuw %struct.AFreqShift, ptr %92, i32 0, i32 12
  store ptr @ffilter_channel_dbl, ptr %93, align 8, !tbaa !61
  br label %97

94:                                               ; preds = %83
  %95 = load ptr, ptr %5, align 8, !tbaa !22
  %96 = getelementptr inbounds nuw %struct.AFreqShift, ptr %95, i32 0, i32 12
  store ptr @pfilter_channel_dbl, ptr %96, align 8, !tbaa !61
  br label %97

97:                                               ; preds = %94, %91
  br label %113

98:                                               ; preds = %78
  %99 = load ptr, ptr %4, align 8, !tbaa !4
  %100 = getelementptr inbounds nuw %struct.AVFilterContext, ptr %99, i32 0, i32 1
  %101 = load ptr, ptr %100, align 8, !tbaa !58
  %102 = getelementptr inbounds nuw %struct.AVFilter, ptr %101, i32 0, i32 0
  %103 = load ptr, ptr %102, align 8, !tbaa !59
  %104 = call i32 @strcmp(ptr noundef %103, ptr noundef @.str) #7
  %105 = icmp ne i32 %104, 0
  br i1 %105, label %109, label %106

106:                                              ; preds = %98
  %107 = load ptr, ptr %5, align 8, !tbaa !22
  %108 = getelementptr inbounds nuw %struct.AFreqShift, ptr %107, i32 0, i32 12
  store ptr @ffilter_channel_flt, ptr %108, align 8, !tbaa !61
  br label %112

109:                                              ; preds = %98
  %110 = load ptr, ptr %5, align 8, !tbaa !22
  %111 = getelementptr inbounds nuw %struct.AFreqShift, ptr %110, i32 0, i32 12
  store ptr @pfilter_channel_flt, ptr %111, align 8, !tbaa !61
  br label %112

112:                                              ; preds = %109, %106
  br label %113

113:                                              ; preds = %112, %97
  store i32 0, ptr %2, align 4
  store i32 1, ptr %6, align 4
  br label %114

114:                                              ; preds = %113, %77
  call void @llvm.lifetime.end.p0(i64 8, ptr %5) #6
  call void @llvm.lifetime.end.p0(i64 8, ptr %4) #6
  %115 = load i32, ptr %2, align 4
  ret i32 %115
}