; Function Attrs: nounwind uwtable
define internal range(i32 -12, 1) i32 @config_input(ptr noundef %0) #2 {
  %2 = getelementptr inbounds nuw i8, ptr %0, i64 16
  %3 = load ptr, ptr %2, align 8, !tbaa !22
  %4 = getelementptr inbounds nuw i8, ptr %3, i64 72
  %5 = load ptr, ptr %4, align 8, !tbaa !4
  %6 = getelementptr inbounds nuw i8, ptr %5, i64 28
  %7 = load i32, ptr %6, align 4, !tbaa !34
  %8 = getelementptr inbounds nuw i8, ptr %5, i64 24
  %9 = load i32, ptr %8, align 8, !tbaa !38
  %.not = icmp eq i32 %7, %9
  br i1 %.not, label %18, label %10

10:                                               ; preds = %1
  %11 = getelementptr inbounds nuw i8, ptr %5, i64 32
  %12 = getelementptr inbounds nuw i8, ptr %5, i64 288
  %13 = shl nsw i32 %9, 1
  %14 = getelementptr inbounds nuw i8, ptr %0, i64 64
  %15 = load i32, ptr %14, align 8, !tbaa !39
  %16 = sitofp i32 %15 to double
  %17 = fdiv nsz double 4.000000e+01, %16
  tail call fastcc void @compute_coefs(ptr noundef nonnull %11, ptr noundef nonnull %12, i32 noundef %13, double noundef %17)
  %.pre = load i32, ptr %8, align 8, !tbaa !38
  br label %18

18:                                               ; preds = %10, %1
  %19 = phi i32 [ %.pre, %10 ], [ %7, %1 ]
  store i32 %19, ptr %6, align 4, !tbaa !34
  %20 = tail call ptr @ff_get_audio_buffer(ptr noundef nonnull %0, i32 noundef 32) #10
  %21 = getelementptr inbounds nuw i8, ptr %5, i64 424
  store ptr %20, ptr %21, align 8, !tbaa !50
  %22 = tail call ptr @ff_get_audio_buffer(ptr noundef nonnull %0, i32 noundef 32) #10
  %23 = getelementptr inbounds nuw i8, ptr %5, i64 432
  store ptr %22, ptr %23, align 8, !tbaa !51
  %24 = tail call ptr @ff_get_audio_buffer(ptr noundef nonnull %0, i32 noundef 32) #10
  %25 = getelementptr inbounds nuw i8, ptr %5, i64 440
  store ptr %24, ptr %25, align 8, !tbaa !52
  %26 = tail call ptr @ff_get_audio_buffer(ptr noundef nonnull %0, i32 noundef 32) #10
  %27 = getelementptr inbounds nuw i8, ptr %5, i64 448
  store ptr %26, ptr %27, align 8, !tbaa !53
  %28 = load ptr, ptr %21, align 8, !tbaa !50
  %.not30 = icmp eq ptr %28, null
  br i1 %.not30, label %41, label %29

29:                                               ; preds = %18
  %30 = load ptr, ptr %23, align 8, !tbaa !51
  %.not31 = icmp eq ptr %30, null
  br i1 %.not31, label %41, label %31

31:                                               ; preds = %29
  %32 = load ptr, ptr %25, align 8, !tbaa !52
  %.not32 = icmp eq ptr %32, null
  %.not33 = icmp eq ptr %26, null
  %or.cond = select i1 %.not32, i1 true, i1 %.not33
  br i1 %or.cond, label %41, label %.sink.split

.sink.split:                                      ; preds = %31
  %33 = getelementptr inbounds nuw i8, ptr %0, i64 36
  %34 = load i32, ptr %33, align 4, !tbaa !54
  %35 = icmp eq i32 %34, 9
  %36 = getelementptr inbounds nuw i8, ptr %3, i64 8
  %37 = load ptr, ptr %36, align 8, !tbaa !55
  %38 = load ptr, ptr %37, align 8, !tbaa !56
  %39 = tail call i32 @strcmp(ptr noundef nonnull dereferenceable(1) %38, ptr noundef nonnull dereferenceable(11) @.str) #11
  %.not35 = icmp eq i32 %39, 0
  %40 = getelementptr inbounds nuw i8, ptr %5, i64 456
  %ffilter_channel_dbl.pfilter_channel_dbl = select i1 %.not35, ptr @ffilter_channel_dbl, ptr @pfilter_channel_dbl
  %ffilter_channel_flt.pfilter_channel_flt = select i1 %.not35, ptr @ffilter_channel_flt, ptr @pfilter_channel_flt
  %pfilter_channel_dbl.sink = select i1 %35, ptr %ffilter_channel_dbl.pfilter_channel_dbl, ptr %ffilter_channel_flt.pfilter_channel_flt
  store ptr %pfilter_channel_dbl.sink, ptr %40, align 8, !tbaa !58
  br label %41

41:                                               ; preds = %.sink.split, %18, %29, %31
  %.0 = phi i32 [ -12, %31 ], [ -12, %29 ], [ -12, %18 ], [ 0, %.sink.split ]
  ret i32 %.0
}